target datalayout = "e-m:e-p270:32:32-p271:32:32-p272:64:64-i64:64-i128:128-f80:128-n8:16:32:64-S128"
target triple = "x86_64-pc-linux-gnu"

%union.pthread_mutex_t = type { %struct.__pthread_mutex_s }
%struct.__pthread_mutex_s = type { i32, i32, i32, i32, i32, i16, i16, %struct.__pthread_internal_list }
%struct.__pthread_internal_list = type { ptr, ptr }
%struct.slurm_jobacct_gather_ops = type { ptr, ptr, ptr }
%struct.assoc_mgr_lock_t = type { i32, i32, i32, i32, i32, i32, i32 }
%struct.jobacctinfo = type { i32, i64, i32, i64, i32, i32, %struct.acct_gather_energy, double, double, i32, i32, i32, ptr, ptr, ptr, ptr, ptr, ptr, ptr, ptr, ptr, ptr, ptr, ptr, ptr, ptr, ptr, ptr, %struct.jobacct_id_t, i32, double, double, i64, i64 }
%struct.acct_gather_energy = type { i32, i64, i64, i32, i64, i64, i64 }
%struct.jobacct_id_t = type { i32, i32, ptr }

@.str.1 = private unnamed_addr constant [29 x i8] c"%s: pthread_mutex_lock(): %m\00", align 1
@plugin_inited = internal global i32 0, align 4
@ops = internal global %struct.slurm_jobacct_gather_ops zeroinitializer, align 8
@.str.3 = private unnamed_addr constant [31 x i8] c"%s: pthread_mutex_unlock(): %m\00", align 1
@.str.8 = private unnamed_addr constant [17 x i8] c"jobacct_gather.c\00", align 1
@jobacct_shutdown_mutex = internal global %union.pthread_mutex_t zeroinitializer, align 8
@jobacct_shutdown = internal global i8 1, align 1
@task_list = internal global ptr null, align 8
@task_list_lock = internal global %union.pthread_mutex_t zeroinitializer, align 8
@__func__.jobacct_gather_add_task = private unnamed_addr constant [24 x i8] c"jobacct_gather_add_task\00", align 1
@.str.18 = private unnamed_addr constant [37 x i8] c"invalid pid given (%d) for task acct\00", align 1
@.str.19 = private unnamed_addr constant [22 x i8] c"no task list created!\00", align 1
@.str.20 = private unnamed_addr constant [44 x i8] c"adding task %u pid %d on node %u to jobacct\00", align 1
@__func__.jobacctinfo_create = private unnamed_addr constant [19 x i8] c"jobacctinfo_create\00", align 1
@__func__._jobacct_shutdown_test = private unnamed_addr constant [23 x i8] c"_jobacct_shutdown_test\00", align 1
@__const._jobacctinfo_create_tres_usage.locks = private unnamed_addr constant %struct.assoc_mgr_lock_t { i32 0, i32 0, i32 0, i32 0, i32 1, i32 0, i32 0 }, align 4
@g_tres_count = external global i32, align 4

; Function Attrs: nounwind uwtable
define internal void @_jobacctinfo_create_tres_usage(ptr noundef %0, ptr noundef %1) #0 {
  %3 = alloca ptr, align 8
  %4 = alloca ptr, align 8
  %5 = alloca %struct.assoc_mgr_lock_t, align 4
  store ptr %0, ptr %3, align 8
  store ptr %1, ptr %4, align 8
  call void @llvm.lifetime.start.p0(i64 28, ptr %5) #8
  call void @llvm.memcpy.p0.p0.i64(ptr align 4 %5, ptr align 4 @__const._jobacctinfo_create_tres_usage.locks, i64 28, i1 false)
  call void @assoc_mgr_lock(ptr noundef %5)
  %6 = load ptr, ptr %4, align 8
  %7 = load ptr, ptr %3, align 8
  %8 = load i32, ptr @g_tres_count, align 4
  call void @_init_tres_usage(ptr noundef %6, ptr noundef %7, i32 noundef %8)
  call void @assoc_mgr_unlock(ptr noundef %5)
  call void @llvm.lifetime.end.p0(i64 28, ptr %5) #8
  ret void
}

; Function Attrs: nounwind uwtable
define dso_local void @jobacctinfo_destroy(ptr noundef %0) #0 {
  %2 = alloca ptr, align 8
  %3 = alloca ptr, align 8
  store ptr %0, ptr %2, align 8
  call void @llvm.lifetime.start.p0(i64 8, ptr %3) #8
  %4 = load ptr, ptr %2, align 8
  store ptr %4, ptr %3, align 8
  %5 = load ptr, ptr %3, align 8
  call void @_free_tres_usage(ptr noundef %5)
  call void @slurm_xfree(ptr noundef %3)
  call void @llvm.lifetime.end.p0(i64 8, ptr %3) #8
  ret void
}

; Function Attrs: nounwind uwtable
define dso_local ptr @jobacctinfo_create(ptr noundef %0) #0 {
  %2 = alloca ptr, align 8
  %3 = alloca ptr, align 8
  %4 = alloca ptr, align 8
  %5 = alloca %struct.jobacct_id_t, align 8
  %6 = alloca i32, align 4
  store ptr %0, ptr %3, align 8
  call void @llvm.lifetime.start.p0(i64 8, ptr %4) #8
  call void @llvm.lifetime.start.p0(i64 16, ptr %5) #8
  %7 = load i32, ptr @plugin_inited, align 4
  %8 = icmp eq i32 %7, 1
  br i1 %8, label %9, label %10

9:                                                ; preds = %1
  store ptr null, ptr %2, align 8
  store i32 1, ptr %6, align 4
  br label %31

10:                                               ; preds = %1
  %11 = call ptr @slurm_xcalloc(i64 noundef 1, i64 noundef 312, i1 noundef zeroext true, i1 noundef zeroext false, ptr noundef @.str.8, i32 noundef 851, ptr noundef @__func__.jobacctinfo_create)
  store ptr %11, ptr %4, align 8
  %12 = load ptr, ptr %3, align 8
  %13 = icmp ne ptr %12, null
  br i1 %13, label %17, label %14

14:                                               ; preds = %10
  %15 = getelementptr inbounds nuw %struct.jobacct_id_t, ptr %5, i32 0, i32 0
  store i32 -2, ptr %15, align 8
  %16 = getelementptr inbounds nuw %struct.jobacct_id_t, ptr %5, i32 0, i32 1
  store i32 -2, ptr %16, align 4
  store ptr %5, ptr %3, align 8
  br label %17

17:                                               ; preds = %14, %10
  %18 = load ptr, ptr %4, align 8
  %19 = getelementptr inbounds nuw %struct.jobacctinfo, ptr %18, i32 0, i32 29
  store i32 -1, ptr %19, align 8
  %20 = load ptr, ptr %4, align 8
  %21 = getelementptr inbounds nuw %struct.jobacctinfo, ptr %20, i32 0, i32 1
  store i64 0, ptr %21, align 8
  %22 = load ptr, ptr %4, align 8
  %23 = getelementptr inbounds nuw %struct.jobacctinfo, ptr %22, i32 0, i32 2
  store i32 0, ptr %23, align 8
  %24 = load ptr, ptr %4, align 8
  %25 = getelementptr inbounds nuw %struct.jobacctinfo, ptr %24, i32 0, i32 3
  store i64 0, ptr %25, align 8
  %26 = load ptr, ptr %4, align 8
  %27 = getelementptr inbounds nuw %struct.jobacctinfo, ptr %26, i32 0, i32 4
  store i32 0, ptr %27, align 8
  %28 = load ptr, ptr %3, align 8
  %29 = load ptr, ptr %4, align 8
  call void @_jobacctinfo_create_tres_usage(ptr noundef %28, ptr noundef %29)
  %30 = load ptr, ptr %4, align 8
  store ptr %30, ptr %2, align 8
  store i32 1, ptr %6, align 4
  br label %31

31:                                               ; preds = %17, %9
  call void @llvm.lifetime.end.p0(i64 16, ptr %5) #8
  call void @llvm.lifetime.end.p0(i64 8, ptr %4) #8
  %32 = load ptr, ptr %2, align 8
  ret ptr %32
}

; Function Attrs: nounwind uwtable
define internal zeroext i1 @_jobacct_shutdown_test() #0 {
  %1 = alloca i8, align 1
  %2 = alloca i32, align 4
  %3 = alloca i32, align 4
  call void @llvm.lifetime.start.p0(i64 1, ptr %1) #8
  br label %4

4:                                                ; preds = %0
  call void @llvm.lifetime.start.p0(i64 4, ptr %2) #8
  %5 = call i32 @pthread_mutex_lock(ptr noundef @jobacct_shutdown_mutex) #8
  store i32 %5, ptr %2, align 4
  %6 = load i32, ptr %2, align 4
  %7 = icmp ne i32 %6, 0
  br i1 %7, label %8, label %11

8:                                                ; preds = %4
  %9 = load i32, ptr %2, align 4
  %10 = call ptr @__errno_location() #9
  store i32 %9, ptr %10, align 4
  call void (ptr, ...) @fatal_abort(ptr noundef @.str.1, ptr noundef @__func__._jobacct_shutdown_test) #10
  unreachable

11:                                               ; preds = %4
  call void @llvm.lifetime.end.p0(i64 4, ptr %2) #8
  br label %12

12:                                               ; preds = %11
  br label %13

13:                                               ; preds = %12
  %14 = load i8, ptr @jobacct_shutdown, align 1, !range !8, !noundef !9
  %15 = trunc i8 %14 to i1
  %16 = zext i1 %15 to i8
  store i8 %16, ptr %1, align 1
  br label %17

17:                                               ; preds = %13
  call void @llvm.lifetime.start.p0(i64 4, ptr %3) #8
  %18 = call i32 @pthread_mutex_unlock(ptr noundef @jobacct_shutdown_mutex) #8
  store i32 %18, ptr %3, align 4
  %19 = load i32, ptr %3, align 4
  %20 = icmp ne i32 %19, 0
  br i1 %20, label %21, label %24

21:                                               ; preds = %17
  %22 = load i32, ptr %3, align 4
  %23 = call ptr @__errno_location() #9
  store i32 %22, ptr %23, align 4
  call void (ptr, ...) @fatal_abort(ptr noundef @.str.3, ptr noundef @__func__._jobacct_shutdown_test) #10
  unreachable

24:                                               ; preds = %17
  call void @llvm.lifetime.end.p0(i64 4, ptr %3) #8
  br label %25

25:                                               ; preds = %24
  br label %26

26:                                               ; preds = %25
  %27 = load i8, ptr %1, align 1, !range !8, !noundef !9
  %28 = trunc i8 %27 to i1
  call void @llvm.lifetime.end.p0(i64 1, ptr %1) #8
  ret i1 %28
}

; Function Attrs: nounwind uwtable
define dso_local i32 @jobacct_gather_add_task(i32 noundef %0, ptr noundef %1, i32 noundef %2) #0 {
  %4 = alloca i32, align 4
  %5 = alloca i32, align 4
  %6 = alloca ptr, align 8
  %7 = alloca i32, align 4
  %8 = alloca ptr, align 8
  %9 = alloca i32, align 4
  %10 = alloca i32, align 4
  %11 = alloca i32, align 4
  %12 = alloca i32, align 4
  store i32 %0, ptr %5, align 4
  store ptr %1, ptr %6, align 8
  store i32 %2, ptr %7, align 4
  call void @llvm.lifetime.start.p0(i64 8, ptr %8) #8
  %13 = load i32, ptr @plugin_inited, align 4
  %14 = icmp eq i32 %13, 1
  br i1 %14, label %15, label %16

15:                                               ; preds = %3
  store i32 0, ptr %4, align 4
  store i32 1, ptr %9, align 4
  br label %99

16:                                               ; preds = %3
  %17 = call zeroext i1 @_jobacct_shutdown_test()
  br i1 %17, label %18, label %19

18:                                               ; preds = %16
  store i32 -1, ptr %4, align 4
  store i32 1, ptr %9, align 4
  br label %99

19:                                               ; preds = %16
  %20 = load ptr, ptr %6, align 8
  %21 = call ptr @jobacctinfo_create(ptr noundef %20)
  store ptr %21, ptr %8, align 8
  br label %22

22:                                               ; preds = %19
  call void @llvm.lifetime.start.p0(i64 4, ptr %10) #8
  %23 = call i32 @pthread_mutex_lock(ptr noundef @task_list_lock) #8
  store i32 %23, ptr %10, align 4
  %24 = load i32, ptr %10, align 4
  %25 = icmp ne i32 %24, 0
  br i1 %25, label %26, label %29

26:                                               ; preds = %22
  %27 = load i32, ptr %10, align 4
  %28 = call ptr @__errno_location() #9
  store i32 %27, ptr %28, align 4
  call void (ptr, ...) @fatal_abort(ptr noundef @.str.1, ptr noundef @__func__.jobacct_gather_add_task) #10
  unreachable

29:                                               ; preds = %22
  call void @llvm.lifetime.end.p0(i64 4, ptr %10) #8
  br label %30

30:                                               ; preds = %29
  br label %31

31:                                               ; preds = %30
  %32 = load i32, ptr %5, align 4
  %33 = icmp sle i32 %32, 0
  br i1 %33, label %34, label %37

34:                                               ; preds = %31
  %35 = load i32, ptr %5, align 4
  %36 = call i32 (ptr, ...) @error(ptr noundef @.str.18, i32 noundef %35)
  br label %87

37:                                               ; preds = %31
  %38 = load ptr, ptr @task_list, align 8
  %39 = icmp ne ptr %38, null
  br i1 %39, label %42, label %40

40:                                               ; preds = %37
  %41 = call i32 (ptr, ...) @error(ptr noundef @.str.19)
  br label %87

42:                                               ; preds = %37
  br label %43

43:                                               ; preds = %42
  %44 = load i32, ptr %5, align 4
  %45 = load ptr, ptr %8, align 8
  %46 = getelementptr inbounds nuw %struct.jobacctinfo, ptr %45, i32 0, i32 0
  store i32 %44, ptr %46, align 8
  %47 = load ptr, ptr %8, align 8
  %48 = getelementptr inbounds nuw %struct.jobacctinfo, ptr %47, i32 0, i32 28
  %49 = load ptr, ptr %6, align 8
  call void @llvm.memcpy.p0.p0.i64(ptr align 8 %48, ptr align 8 %49, i64 16, i1 false)
  br label %50

50:                                               ; preds = %43
  br label %51

51:                                               ; preds = %50
  %52 = call i32 @get_log_level()
  %53 = icmp sge i32 %52, 6
  br i1 %53, label %54, label %62

54:                                               ; preds = %51
  %55 = load ptr, ptr %6, align 8
  %56 = getelementptr inbounds nuw %struct.jobacct_id_t, ptr %55, i32 0, i32 0
  %57 = load i32, ptr %56, align 8
  %58 = load i32, ptr %5, align 4
  %59 = load ptr, ptr %6, align 8
  %60 = getelementptr inbounds nuw %struct.jobacct_id_t, ptr %59, i32 0, i32 1
  %61 = load i32, ptr %60, align 4
  call void (i32, ptr, ...) @log_var(i32 noundef 6, ptr noundef @.str.20, i32 noundef %57, i32 noundef %58, i32 noundef %61)
  br label %62

62:                                               ; preds = %54, %51
  br label %63

63:                                               ; preds = %62
  br label %64

64:                                               ; preds = %63
  br label %65

65:                                               ; preds = %64
  br label %66

66:                                               ; preds = %65
  %67 = load ptr, ptr getelementptr inbounds nuw (%struct.slurm_jobacct_gather_ops, ptr @ops, i32 0, i32 2), align 8
  %68 = load i32, ptr %5, align 4
  %69 = load ptr, ptr %6, align 8
  %70 = call i32 %67(i32 noundef %68, ptr noundef %69)
  %71 = load ptr, ptr @task_list, align 8
  %72 = load ptr, ptr %8, align 8
  call void @list_push(ptr noundef %71, ptr noundef %72)
  br label %73

73:                                               ; preds = %66
  call void @llvm.lifetime.start.p0(i64 4, ptr %11) #8
  %74 = call i32 @pthread_mutex_unlock(ptr noundef @task_list_lock) #8
  store i32 %74, ptr %11, align 4
  %75 = load i32, ptr %11, align 4
  %76 = icmp ne i32 %75, 0
  br i1 %76, label %77, label %80

77:                                               ; preds = %73
  %78 = load i32, ptr %11, align 4
  %79 = call ptr @__errno_location() #9
  store i32 %78, ptr %79, align 4
  call void (ptr, ...) @fatal_abort(ptr noundef @.str.3, ptr noundef @__func__.jobacct_gather_add_task) #10
  unreachable

80:                                               ; preds = %73
  call void @llvm.lifetime.end.p0(i64 4, ptr %11) #8
  br label %81

81:                                               ; preds = %80
  br label %82

82:                                               ; preds = %81
  %83 = load i32, ptr %7, align 4
  %84 = icmp eq i32 %83, 1
  br i1 %84, label %85, label %86

85:                                               ; preds = %82
  call void @_poll_data(i1 noundef zeroext true)
  br label %86

86:                                               ; preds = %85, %82
  store i32 0, ptr %4, align 4
  store i32 1, ptr %9, align 4
  br label %99

87:                                               ; preds = %40, %34
  br label %88

88:                                               ; preds = %87
  call void @llvm.lifetime.start.p0(i64 4, ptr %12) #8
  %89 = call i32 @pthread_mutex_unlock(ptr noundef @task_list_lock) #8
  store i32 %89, ptr %12, align 4
  %90 = load i32, ptr %12, align 4
  %91 = icmp ne i32 %90, 0
  br i1 %91, label %92, label %95

92:                                               ; preds = %88
  %93 = load i32, ptr %12, align 4
  %94 = call ptr @__errno_location() #9
  store i32 %93, ptr %94, align 4
  call void (ptr, ...) @fatal_abort(ptr noundef @.str.3, ptr noundef @__func__.jobacct_gather_add_task) #10
  unreachable

95:                                               ; preds = %88
  call void @llvm.lifetime.end.p0(i64 4, ptr %12) #8
  br label %96

96:                                               ; preds = %95
  br label %97

97:                                               ; preds = %96
  %98 = load ptr, ptr %8, align 8
  call void @jobacctinfo_destroy(ptr noundef %98)
  store i32 -1, ptr %4, align 4
  store i32 1, ptr %9, align 4
  br label %99

99:                                               ; preds = %97, %86, %18, %15
  call void @llvm.lifetime.end.p0(i64 8, ptr %8) #8
  %100 = load i32, ptr %4, align 4
  ret i32 %100
}