; Function Attrs: nounwind uwtable
define dso_local range(i32 -1, 1) i32 @jobacct_gather_add_task(i32 noundef %0, ptr noundef %1, i32 noundef %2) local_unnamed_addr #0 {
  %4 = alloca ptr, align 8
  %5 = alloca %struct.assoc_mgr_lock_t, align 4
  %6 = alloca %struct.jobacct_id_t, align 8
  %7 = load i32, ptr @plugin_inited, align 4
  %8 = icmp eq i32 %7, 1
  br i1 %8, label %65, label %9

9:                                                ; preds = %3
  %10 = tail call i32 @pthread_mutex_lock(ptr noundef nonnull @jobacct_shutdown_mutex) #10
  %.not.i = icmp eq i32 %10, 0
  br i1 %.not.i, label %13, label %11

11:                                               ; preds = %9
  %12 = tail call ptr @__errno_location() #11
  store i32 %10, ptr %12, align 4
  tail call void (ptr, ...) @fatal_abort(ptr noundef nonnull @.str.1, ptr noundef nonnull @__func__._jobacct_shutdown_test) #12
  unreachable

13:                                               ; preds = %9
  %.b.i = load i1, ptr @jobacct_shutdown, align 1
  %14 = tail call i32 @pthread_mutex_unlock(ptr noundef nonnull @jobacct_shutdown_mutex) #10
  %.not6.i = icmp eq i32 %14, 0
  br i1 %.not6.i, label %_jobacct_shutdown_test.exit, label %15

15:                                               ; preds = %13
  %16 = tail call ptr @__errno_location() #11
  store i32 %14, ptr %16, align 4
  tail call void (ptr, ...) @fatal_abort(ptr noundef nonnull @.str.3, ptr noundef nonnull @__func__._jobacct_shutdown_test) #12
  unreachable

_jobacct_shutdown_test.exit:                      ; preds = %13
  br i1 %.b.i, label %17, label %65

17:                                               ; preds = %_jobacct_shutdown_test.exit
  call void @llvm.lifetime.start.p0(i64 16, ptr nonnull %6) #10
  %18 = load i32, ptr @plugin_inited, align 4
  %19 = icmp eq i32 %18, 1
  br i1 %19, label %jobacctinfo_create.exit, label %20

20:                                               ; preds = %17
  %21 = tail call ptr @slurm_xcalloc(i64 noundef 1, i64 noundef 312, i1 noundef zeroext true, i1 noundef zeroext false, ptr noundef nonnull @.str.8, i32 noundef 851, ptr noundef nonnull @__func__.jobacctinfo_create) #10
  %.not.i28 = icmp eq ptr %1, null
  br i1 %.not.i28, label %22, label %24

22:                                               ; preds = %20
  store i32 -2, ptr %6, align 8
  %23 = getelementptr inbounds nuw i8, ptr %6, i64 4
  store i32 -2, ptr %23, align 4
  br label %24

24:                                               ; preds = %22, %20
  %.010.i = phi ptr [ %1, %20 ], [ %6, %22 ]
  %25 = getelementptr inbounds nuw i8, ptr %21, i64 272
  store i32 -1, ptr %25, align 8
  %26 = getelementptr inbounds nuw i8, ptr %21, i64 8
  store i64 0, ptr %26, align 8
  %27 = getelementptr inbounds nuw i8, ptr %21, i64 16
  store i32 0, ptr %27, align 8
  %28 = getelementptr inbounds nuw i8, ptr %21, i64 24
  store i64 0, ptr %28, align 8
  %29 = getelementptr inbounds nuw i8, ptr %21, i64 32
  store i32 0, ptr %29, align 8
  call void @llvm.lifetime.start.p0(i64 28, ptr nonnull %5) #10
  call void @llvm.memcpy.p0.p0.i64(ptr noundef nonnull align 4 dereferenceable(28) %5, ptr noundef nonnull align 4 dereferenceable(28) @__const._jobacctinfo_2_stats_tres_usage.locks, i64 28, i1 false)
  call void @assoc_mgr_lock(ptr noundef nonnull %5) #10
  %30 = load i32, ptr @g_tres_count, align 4
  call fastcc void @_init_tres_usage(ptr noundef %21, ptr noundef nonnull %.010.i, i32 noundef %30)
  call void @assoc_mgr_unlock(ptr noundef nonnull %5) #10
  call void @llvm.lifetime.end.p0(i64 28, ptr nonnull %5) #10
  br label %jobacctinfo_create.exit

jobacctinfo_create.exit:                          ; preds = %17, %24
  %.0.i = phi ptr [ %21, %24 ], [ null, %17 ]
  call void @llvm.lifetime.end.p0(i64 16, ptr nonnull %6) #10
  %31 = call i32 @pthread_mutex_lock(ptr noundef nonnull @task_list_lock) #10
  %.not = icmp eq i32 %31, 0
  br i1 %.not, label %34, label %32

32:                                               ; preds = %jobacctinfo_create.exit
  %33 = tail call ptr @__errno_location() #11
  store i32 %31, ptr %33, align 4
  call void (ptr, ...) @fatal_abort(ptr noundef nonnull @.str.1, ptr noundef nonnull @__func__.jobacct_gather_add_task) #12
  unreachable

34:                                               ; preds = %jobacctinfo_create.exit
  %35 = icmp slt i32 %0, 1
  br i1 %35, label %36, label %38

36:                                               ; preds = %34
  %37 = call i32 (ptr, ...) @error(ptr noundef nonnull @.str.18, i32 noundef %0) #10
  br label %60

38:                                               ; preds = %34
  %39 = load ptr, ptr @task_list, align 8
  %.not25 = icmp eq ptr %39, null
  br i1 %.not25, label %40, label %42

40:                                               ; preds = %38
  %41 = call i32 (ptr, ...) @error(ptr noundef nonnull @.str.19) #10
  br label %60

42:                                               ; preds = %38
  store i32 %0, ptr %.0.i, align 8
  %43 = getelementptr inbounds nuw i8, ptr %.0.i, i64 256
  call void @llvm.memcpy.p0.p0.i64(ptr noundef nonnull align 8 dereferenceable(16) %43, ptr noundef nonnull align 8 dereferenceable(16) %1, i64 16, i1 false)
  %44 = call i32 @get_log_level() #10
  %45 = icmp sgt i32 %44, 5
  br i1 %45, label %46, label %50

46:                                               ; preds = %42
  %47 = load i32, ptr %1, align 8
  %48 = getelementptr inbounds nuw i8, ptr %1, i64 4
  %49 = load i32, ptr %48, align 4
  call void (i32, ptr, ...) @log_var(i32 noundef 6, ptr noundef nonnull @.str.20, i32 noundef %47, i32 noundef %0, i32 noundef %49) #10
  br label %50

50:                                               ; preds = %46, %42
  %51 = load ptr, ptr getelementptr inbounds nuw (i8, ptr @ops, i64 16), align 8
  %52 = call i32 %51(i32 noundef %0, ptr noundef nonnull %1) #10
  %53 = load ptr, ptr @task_list, align 8
  call void @list_push(ptr noundef %53, ptr noundef nonnull %.0.i) #10
  %54 = call i32 @pthread_mutex_unlock(ptr noundef nonnull @task_list_lock) #10
  %.not26 = icmp eq i32 %54, 0
  br i1 %.not26, label %57, label %55

55:                                               ; preds = %50
  %56 = tail call ptr @__errno_location() #11
  store i32 %54, ptr %56, align 4
  call void (ptr, ...) @fatal_abort(ptr noundef nonnull @.str.3, ptr noundef nonnull @__func__.jobacct_gather_add_task) #12
  unreachable

57:                                               ; preds = %50
  %58 = icmp eq i32 %2, 1
  br i1 %58, label %59, label %65

59:                                               ; preds = %57
  call fastcc void @_poll_data(i1 noundef zeroext true)
  br label %65

60:                                               ; preds = %36, %40
  %61 = call i32 @pthread_mutex_unlock(ptr noundef nonnull @task_list_lock) #10
  %.not27 = icmp eq i32 %61, 0
  br i1 %.not27, label %64, label %62

62:                                               ; preds = %60
  %63 = tail call ptr @__errno_location() #11
  store i32 %61, ptr %63, align 4
  call void (ptr, ...) @fatal_abort(ptr noundef nonnull @.str.3, ptr noundef nonnull @__func__.jobacct_gather_add_task) #12
  unreachable

64:                                               ; preds = %60
  call void @llvm.lifetime.start.p0(i64 8, ptr nonnull %4) #10
  store ptr %.0.i, ptr %4, align 8
  call fastcc void @_free_tres_usage(ptr noundef %.0.i)
  call void @slurm_xfree(ptr noundef nonnull %4) #10
  call void @llvm.lifetime.end.p0(i64 8, ptr nonnull %4) #10
  br label %65

65:                                               ; preds = %57, %59, %_jobacct_shutdown_test.exit, %3, %64
  %.0 = phi i32 [ -1, %64 ], [ 0, %3 ], [ -1, %_jobacct_shutdown_test.exit ], [ 0, %59 ], [ 0, %57 ]
  ret i32 %.0
}